; Function Attrs: nounwind uwtable
define noalias noundef ptr @Gia_ManGenNeuronFinal(ptr noundef %0, ptr noundef readonly captures(none) %1, i32 noundef %2) local_unnamed_addr #0 {
  %4 = tail call noalias dereferenceable_or_null(16) ptr @malloc(i64 noundef 16) #23
  %5 = add i32 %2, -1
  %or.cond.i = icmp ult i32 %5, 15
  %spec.store.select.i = select i1 %or.cond.i, i32 16, i32 %2
  %6 = getelementptr inbounds nuw i8, ptr %4, i64 4
  store i32 0, ptr %6, align 4, !tbaa !41
  store i32 %spec.store.select.i, ptr %4, align 8, !tbaa !43
  %.not.i = icmp eq i32 %spec.store.select.i, 0
  br i1 %.not.i, label %Vec_IntAlloc.exit, label %7

7:                                                ; preds = %3
  %8 = sext i32 %spec.store.select.i to i64
  %9 = shl nsw i64 %8, 2
  %10 = tail call noalias ptr @malloc(i64 noundef %9) #23
  br label %Vec_IntAlloc.exit

Vec_IntAlloc.exit:                                ; preds = %3, %7
  %11 = phi ptr [ %10, %7 ], [ null, %3 ]
  %12 = getelementptr inbounds nuw i8, ptr %4, i64 8
  store ptr %11, ptr %12, align 8, !tbaa !44
  %13 = getelementptr i8, ptr %1, i64 8
  %.val14 = load ptr, ptr %13, align 8, !tbaa !124
  %14 = getelementptr i8, ptr %.val14, i64 4
  %.val7.i = load i32, ptr %14, align 4, !tbaa !41
  %15 = icmp sgt i32 %.val7.i, 0
  br i1 %15, label %.lr.ph.i, label %Vec_IntAppend.exit

.lr.ph.i:                                         ; preds = %Vec_IntAlloc.exit
  %16 = getelementptr i8, ptr %.val14, i64 8
  br label %17

17:                                               ; preds = %Vec_IntPush.exit.i, %.lr.ph.i
  %18 = phi ptr [ %11, %.lr.ph.i ], [ %.pre.i.i21, %Vec_IntPush.exit.i ]
  %indvars.iv.i = phi i64 [ 0, %.lr.ph.i ], [ %indvars.iv.next.i, %Vec_IntPush.exit.i ]
  %.val6.i = load ptr, ptr %16, align 8, !tbaa !44
  %19 = getelementptr inbounds nuw i32, ptr %.val6.i, i64 %indvars.iv.i
  %20 = load i32, ptr %19, align 4, !tbaa !19
  %21 = load i32, ptr %6, align 4, !tbaa !41
  %22 = load i32, ptr %4, align 8, !tbaa !43
  %23 = icmp eq i32 %21, %22
  br i1 %23, label %24, label %Vec_IntPush.exit.i

24:                                               ; preds = %17
  %25 = icmp slt i32 %21, 16
  br i1 %25, label %26, label %31

26:                                               ; preds = %24
  %.not9.i.i.i = icmp eq ptr %18, null
  br i1 %.not9.i.i.i, label %29, label %27

27:                                               ; preds = %26
  %28 = tail call dereferenceable_or_null(64) ptr @realloc(ptr noundef nonnull %18, i64 noundef 64) #22
  br label %Vec_IntPush.exit.i.sink.split

29:                                               ; preds = %26
  %30 = tail call noalias dereferenceable_or_null(64) ptr @malloc(i64 noundef 64) #23
  br label %Vec_IntPush.exit.i.sink.split

31:                                               ; preds = %24
  %32 = shl nuw nsw i32 %21, 1
  %.not9.i9.i.i = icmp eq ptr %18, null
  %33 = zext nneg i32 %32 to i64
  %34 = shl nuw nsw i64 %33, 2
  br i1 %.not9.i9.i.i, label %37, label %35

35:                                               ; preds = %31
  %36 = tail call ptr @realloc(ptr noundef nonnull %18, i64 noundef %34) #22
  br label %Vec_IntPush.exit.i.sink.split

37:                                               ; preds = %31
  %38 = tail call noalias ptr @malloc(i64 noundef %34) #23
  br label %Vec_IntPush.exit.i.sink.split

Vec_IntPush.exit.i.sink.split:                    ; preds = %35, %37, %27, %29
  %.sink22 = phi ptr [ %28, %27 ], [ %30, %29 ], [ %36, %35 ], [ %38, %37 ]
  %.sink = phi i32 [ 16, %27 ], [ 16, %29 ], [ %32, %35 ], [ %32, %37 ]
  store ptr %.sink22, ptr %12, align 8, !tbaa !44
  store i32 %.sink, ptr %4, align 8, !tbaa !43
  br label %Vec_IntPush.exit.i

Vec_IntPush.exit.i:                               ; preds = %Vec_IntPush.exit.i.sink.split, %17
  %.pre.i.i21 = phi ptr [ %18, %17 ], [ %.sink22, %Vec_IntPush.exit.i.sink.split ]
  %39 = add nsw i32 %21, 1
  store i32 %39, ptr %6, align 4, !tbaa !41
  %40 = sext i32 %21 to i64
  %41 = getelementptr inbounds i32, ptr %.pre.i.i21, i64 %40
  store i32 %20, ptr %41, align 4, !tbaa !19
  %indvars.iv.next.i = add nuw nsw i64 %indvars.iv.i, 1
  %.val.i = load i32, ptr %14, align 4, !tbaa !41
  %42 = sext i32 %.val.i to i64
  %43 = icmp slt i64 %indvars.iv.next.i, %42
  br i1 %43, label %17, label %Vec_IntAppend.exit, !llvm.loop !131

Vec_IntAppend.exit:                               ; preds = %Vec_IntPush.exit.i, %Vec_IntAlloc.exit
  %44 = getelementptr i8, ptr %1, i64 4
  %.val17 = load i32, ptr %44, align 4, !tbaa !125
  %45 = icmp sgt i32 %.val17, 1
  br i1 %45, label %.lr.ph, label %.critedge

.lr.ph:                                           ; preds = %Vec_IntAppend.exit, %.lr.ph
  %indvars.iv = phi i64 [ %indvars.iv.next, %.lr.ph ], [ 1, %Vec_IntAppend.exit ]
  %.val13 = load ptr, ptr %13, align 8, !tbaa !124
  %46 = getelementptr %struct.Vec_Int_t_, ptr %.val13, i64 %indvars.iv, i32 2
  %.val16 = load ptr, ptr %46, align 8, !tbaa !44
  %.val15 = load ptr, ptr %12, align 8, !tbaa !44
  tail call void @Gia_ManGenNeuronAdder(ptr noundef %0, i32 noundef %2, ptr noundef %.val16, ptr noundef %.val15, i32 noundef 0, ptr noundef nonnull %4)
  %indvars.iv.next = add nuw nsw i64 %indvars.iv, 1
  %.val = load i32, ptr %44, align 4, !tbaa !125
  %47 = sext i32 %.val to i64
  %48 = icmp slt i64 %indvars.iv.next, %47
  br i1 %48, label %.lr.ph, label %.critedge, !llvm.loop !135

.critedge:                                        ; preds = %.lr.ph, %Vec_IntAppend.exit
  ret ptr %4
}